target datalayout = "e-m:e-p270:32:32-p271:32:32-p272:64:64-i64:64-i128:128-f80:128-n8:16:32:64-S128"
target triple = "x86_64-pc-linux-gnu"

%"struct.SubCircuit::Graph::BitRef" = type { i32, i32, i32 }

; Function Attrs: mustprogress nounwind uwtable
define noundef zeroext i1 @_ZNK10SubCircuit5Graph6BitRefltERKS1_(ptr noundef nonnull align 4 dereferenceable(12) %0, ptr noundef nonnull align 4 dereferenceable(12) %1) #5 align 2 {
  %3 = alloca i1, align 1
  %4 = alloca ptr, align 8
  %5 = alloca ptr, align 8
  store ptr %0, ptr %4, align 8, !tbaa !58
  store ptr %1, ptr %5, align 8, !tbaa !58
  %6 = load ptr, ptr %4, align 8
  %7 = getelementptr inbounds nuw %"struct.SubCircuit::Graph::BitRef", ptr %6, i32 0, i32 0
  %8 = load i32, ptr %7, align 4, !tbaa !108
  %9 = load ptr, ptr %5, align 8, !tbaa !58
  %10 = getelementptr inbounds nuw %"struct.SubCircuit::Graph::BitRef", ptr %9, i32 0, i32 0
  %11 = load i32, ptr %10, align 4, !tbaa !108
  %12 = icmp ne i32 %8, %11
  br i1 %12, label %13, label %20

13:                                               ; preds = %2
  %14 = getelementptr inbounds nuw %"struct.SubCircuit::Graph::BitRef", ptr %6, i32 0, i32 0
  %15 = load i32, ptr %14, align 4, !tbaa !108
  %16 = load ptr, ptr %5, align 8, !tbaa !58
  %17 = getelementptr inbounds nuw %"struct.SubCircuit::Graph::BitRef", ptr %16, i32 0, i32 0
  %18 = load i32, ptr %17, align 4, !tbaa !108
  %19 = icmp slt i32 %15, %18
  store i1 %19, ptr %3, align 1
  br label %41

20:                                               ; preds = %2
  %21 = getelementptr inbounds nuw %"struct.SubCircuit::Graph::BitRef", ptr %6, i32 0, i32 1
  %22 = load i32, ptr %21, align 4, !tbaa !61
  %23 = load ptr, ptr %5, align 8, !tbaa !58
  %24 = getelementptr inbounds nuw %"struct.SubCircuit::Graph::BitRef", ptr %23, i32 0, i32 1
  %25 = load i32, ptr %24, align 4, !tbaa !61
  %26 = icmp ne i32 %22, %25
  br i1 %26, label %27, label %34

27:                                               ; preds = %20
  %28 = getelementptr inbounds nuw %"struct.SubCircuit::Graph::BitRef", ptr %6, i32 0, i32 1
  %29 = load i32, ptr %28, align 4, !tbaa !61
  %30 = load ptr, ptr %5, align 8, !tbaa !58
  %31 = getelementptr inbounds nuw %"struct.SubCircuit::Graph::BitRef", ptr %30, i32 0, i32 1
  %32 = load i32, ptr %31, align 4, !tbaa !61
  %33 = icmp slt i32 %29, %32
  store i1 %33, ptr %3, align 1
  br label %41

34:                                               ; preds = %20
  %35 = getelementptr inbounds nuw %"struct.SubCircuit::Graph::BitRef", ptr %6, i32 0, i32 2
  %36 = load i32, ptr %35, align 4, !tbaa !63
  %37 = load ptr, ptr %5, align 8, !tbaa !58
  %38 = getelementptr inbounds nuw %"struct.SubCircuit::Graph::BitRef", ptr %37, i32 0, i32 2
  %39 = load i32, ptr %38, align 4, !tbaa !63
  %40 = icmp slt i32 %36, %39
  store i1 %40, ptr %3, align 1
  br label %41

41:                                               ; preds = %34, %27, %13
  %42 = load i1, ptr %3, align 1
  ret i1 %42
}