; Function Attrs: mustprogress nofree norecurse nosync nounwind willreturn memory(argmem: read) uwtable
define noundef zeroext i1 @_ZNK10SubCircuit5Graph6BitRefltERKS1_(ptr noundef nonnull readonly align 4 captures(none) dereferenceable(12) %0, ptr noundef nonnull readonly align 4 captures(none) dereferenceable(12) %1) local_unnamed_addr #6 align 2 {
  %3 = load i32, ptr %0, align 4, !tbaa !74
  %4 = load i32, ptr %1, align 4, !tbaa !74
  %.not = icmp eq i32 %3, %4
  br i1 %.not, label %7, label %5

5:                                                ; preds = %2
  %6 = icmp slt i32 %3, %4
  br label %20

7:                                                ; preds = %2
  %8 = getelementptr inbounds nuw i8, ptr %0, i64 4
  %9 = load i32, ptr %8, align 4, !tbaa !71
  %10 = getelementptr inbounds nuw i8, ptr %1, i64 4
  %11 = load i32, ptr %10, align 4, !tbaa !71
  %.not11 = icmp eq i32 %9, %11
  br i1 %.not11, label %14, label %12

12:                                               ; preds = %7
  %13 = icmp slt i32 %9, %11
  br label %20

14:                                               ; preds = %7
  %15 = getelementptr inbounds nuw i8, ptr %0, i64 8
  %16 = load i32, ptr %15, align 4, !tbaa !73
  %17 = getelementptr inbounds nuw i8, ptr %1, i64 8
  %18 = load i32, ptr %17, align 4, !tbaa !73
  %19 = icmp slt i32 %16, %18
  br label %20

20:                                               ; preds = %14, %12, %5
  %.0 = phi i1 [ %6, %5 ], [ %13, %12 ], [ %19, %14 ]
  ret i1 %.0
}